; Function Attrs: mustprogress uwtable
define dso_local range(i64 352354305, -3758096384) i64 @_ZN4Luau7CodeGen3X6418AssemblyBuilderX645f32x4Effff(ptr noundef nonnull align 8 dereferenceable(252) %0, float noundef %1, float noundef %2, float noundef %3, float noundef %4) local_unnamed_addr #0 align 2 {
  %6 = getelementptr inbounds nuw i8, ptr %0, i64 224
  %7 = load i64, ptr %6, align 8, !tbaa !50
  %8 = icmp ult i64 %7, 16
  br i1 %8, label %9, label %_ZN4Luau7CodeGen3X6418AssemblyBuilderX6412allocateDataEmm.exit

9:                                                ; preds = %5
  %10 = getelementptr inbounds nuw i8, ptr %0, i64 8
  %11 = load ptr, ptr %10, align 8, !tbaa !48
  %12 = load ptr, ptr %0, align 8, !tbaa !49
  %13 = ptrtoint ptr %11 to i64
  %14 = ptrtoint ptr %12 to i64
  %15 = sub i64 %13, %14
  %16 = shl i64 %15, 1
  tail call void @_ZNSt6vectorIhSaIhEE6resizeEm(ptr noundef nonnull align 8 dereferenceable(252) %0, i64 noundef %16)
  %17 = load ptr, ptr %0, align 8, !tbaa !49
  %18 = getelementptr inbounds nuw i8, ptr %17, i64 %15
  tail call void @llvm.memcpy.p0.p0.i64(ptr nonnull align 1 %18, ptr nonnull align 1 %17, i64 %15, i1 false)
  %19 = load ptr, ptr %0, align 8, !tbaa !49
  tail call void @llvm.memset.p0.i64(ptr nonnull align 1 %19, i8 0, i64 %15, i1 false)
  %20 = load i64, ptr %6, align 8, !tbaa !50
  %21 = add i64 %20, %15
  br label %_ZN4Luau7CodeGen3X6418AssemblyBuilderX6412allocateDataEmm.exit

_ZN4Luau7CodeGen3X6418AssemblyBuilderX6412allocateDataEmm.exit: ; preds = %5, %9
  %22 = phi i64 [ %21, %9 ], [ %7, %5 ]
  %23 = and i64 %22, -16
  %24 = add i64 %23, -16
  store i64 %24, ptr %6, align 8, !tbaa !50
  %25 = load ptr, ptr %0, align 8, !tbaa !49
  %26 = getelementptr inbounds nuw i8, ptr %25, i64 %24
  store float %1, ptr %26, align 1
  %27 = load ptr, ptr %0, align 8, !tbaa !49
  %28 = getelementptr i8, ptr %27, i64 %23
  %29 = getelementptr i8, ptr %28, i64 -12
  store float %2, ptr %29, align 1
  %30 = load ptr, ptr %0, align 8, !tbaa !49
  %31 = getelementptr i8, ptr %30, i64 %23
  %32 = getelementptr i8, ptr %31, i64 -8
  store float %3, ptr %32, align 1
  %33 = load ptr, ptr %0, align 8, !tbaa !49
  %34 = getelementptr i8, ptr %33, i64 %23
  %35 = getelementptr i8, ptr %34, i64 -4
  store float %4, ptr %35, align 1
  %36 = getelementptr inbounds nuw i8, ptr %0, i64 8
  %37 = load ptr, ptr %36, align 8, !tbaa !48
  %38 = load ptr, ptr %0, align 8, !tbaa !49
  %39 = ptrtoint ptr %37 to i64
  %40 = ptrtoint ptr %38 to i64
  %.neg = sub i64 %24, %39
  %41 = add i64 %.neg, %40
  %.sroa.5.0.insert.ext = shl i64 %41, 32
  %.sroa.0.0.insert.insert = or disjoint i64 %.sroa.5.0.insert.ext, 352354305
  ret i64 %.sroa.0.0.insert.insert
}